target datalayout = "e-m:e-p270:32:32-p271:32:32-p272:64:64-i64:64-i128:128-f80:128-n8:16:32:64-S128"
target triple = "x86_64-pc-linux-gnu"

%struct.CVodeMemRec = type { double, ptr, ptr, i32, i32, i32, double, double, ptr, i32, ptr, ptr, i32, ptr, i32, i32, double, double, ptr, i32, i32, i32, ptr, ptr, ptr, i32, i32, ptr, ptr, ptr, i32, double, i32, i32, double, ptr, ptr, i32, ptr, ptr, i32, i32, i32, double, ptr, ptr, [13 x ptr], ptr, ptr, ptr, ptr, ptr, [13 x ptr], ptr, ptr, ptr, ptr, [13 x ptr], ptr, ptr, ptr, ptr, ptr, i32, [13 x ptr], ptr, ptr, ptr, ptr, ptr, i32, double, i32, i32, i32, i32, i32, double, double, double, double, double, double, double, double, [14 x double], [6 x double], [13 x double], double, double, double, double, double, double, double, double, double, double, double, i32, ptr, i32, i64, i32, i32, i32, i32, i32, double, double, double, i64, i64, i64, i64, i64, i64, i64, i64, i64, ptr, i64, i64, ptr, i64, i64, i64, i64, i64, i64, i32, i64, i64, i64, i64, i64, i64, double, double, double, ptr, ptr, ptr, ptr, ptr, i32, i32, i64, double, double, double, i32, double, i32, i32, i32, i32, i32, i32, i32, i32, i32, i32, i32, i32, i32, i32, i32, i32, ptr, ptr, ptr, i32, [6 x [4 x double]], i32, i64, ptr, i32, ptr, ptr, double, double, double, ptr, ptr, ptr, double, double, i32, i32, i64, ptr, i32, i32, ptr, i32 }
%struct.CVBandPrecDataRec = type { i64, i64, i64, ptr, ptr, ptr, i64, ptr }
%struct.CVSpilsMemRec = type { i32, i32, i32, double, double, double, double, i32, i64, i64, i64, i64, i64, i64, i64, ptr, ptr, ptr, ptr, ptr, ptr, ptr, ptr, ptr, i32, ptr, ptr, i64 }

@.str = private unnamed_addr constant [10 x i8] c"CVBANDPRE\00", align 1
@.str.2 = private unnamed_addr constant [27 x i8] c"Integrator memory is NULL.\00", align 1
@.str.3 = private unnamed_addr constant [80 x i8] c"Linear solver memory is NULL. One of the SPILS linear solvers must be attached.\00", align 1
@.str.6 = private unnamed_addr constant [23 x i8] c"CVBandPrecGetWorkSpace\00", align 1
@.str.7 = private unnamed_addr constant [67 x i8] c"Band preconditioner memory is NULL. CVBandPrecInit must be called.\00", align 1

; Function Attrs: nounwind uwtable
define i32 @CVBandPrecGetWorkSpace(ptr noundef %0, ptr noundef %1, ptr noundef %2) #0 {
  %4 = alloca i32, align 4
  %5 = alloca ptr, align 8
  %6 = alloca ptr, align 8
  %7 = alloca ptr, align 8
  %8 = alloca ptr, align 8
  %9 = alloca ptr, align 8
  %10 = alloca ptr, align 8
  %11 = alloca i64, align 8
  %12 = alloca i64, align 8
  %13 = alloca i64, align 8
  %14 = alloca i64, align 8
  %15 = alloca i32, align 4
  store ptr %0, ptr %5, align 8, !tbaa !3
  store ptr %1, ptr %6, align 8, !tbaa !50
  store ptr %2, ptr %7, align 8, !tbaa !50
  call void @llvm.lifetime.start.p0(i64 8, ptr %8) #5
  call void @llvm.lifetime.start.p0(i64 8, ptr %9) #5
  call void @llvm.lifetime.start.p0(i64 8, ptr %10) #5
  call void @llvm.lifetime.start.p0(i64 8, ptr %11) #5
  call void @llvm.lifetime.start.p0(i64 8, ptr %12) #5
  call void @llvm.lifetime.start.p0(i64 8, ptr %13) #5
  call void @llvm.lifetime.start.p0(i64 8, ptr %14) #5
  %16 = load ptr, ptr %5, align 8, !tbaa !3
  %17 = icmp eq ptr %16, null
  br i1 %17, label %18, label %19

18:                                               ; preds = %3
  call void (ptr, i32, ptr, ptr, ptr, ...) @cvProcessError(ptr noundef null, i32 noundef -1, ptr noundef @.str, ptr noundef @.str.6, ptr noundef @.str.2)
  store i32 -1, ptr %4, align 4
  store i32 1, ptr %15, align 4
  br label %79

19:                                               ; preds = %3
  %20 = load ptr, ptr %5, align 8, !tbaa !3
  store ptr %20, ptr %8, align 8, !tbaa !9
  %21 = load ptr, ptr %8, align 8, !tbaa !9
  %22 = getelementptr inbounds nuw %struct.CVodeMemRec, ptr %21, i32 0, i32 144
  %23 = load ptr, ptr %22, align 8, !tbaa !11
  %24 = icmp eq ptr %23, null
  br i1 %24, label %25, label %27

25:                                               ; preds = %19
  %26 = load ptr, ptr %8, align 8, !tbaa !9
  call void (ptr, i32, ptr, ptr, ptr, ...) @cvProcessError(ptr noundef %26, i32 noundef -2, ptr noundef @.str, ptr noundef @.str.6, ptr noundef @.str.3)
  store i32 -2, ptr %4, align 4
  store i32 1, ptr %15, align 4
  br label %79

27:                                               ; preds = %19
  %28 = load ptr, ptr %8, align 8, !tbaa !9
  %29 = getelementptr inbounds nuw %struct.CVodeMemRec, ptr %28, i32 0, i32 144
  %30 = load ptr, ptr %29, align 8, !tbaa !11
  store ptr %30, ptr %9, align 8, !tbaa !22
  %31 = load ptr, ptr %9, align 8, !tbaa !22
  %32 = getelementptr inbounds nuw %struct.CVSpilsMemRec, ptr %31, i32 0, i32 23
  %33 = load ptr, ptr %32, align 8, !tbaa !42
  %34 = icmp eq ptr %33, null
  br i1 %34, label %35, label %37

35:                                               ; preds = %27
  %36 = load ptr, ptr %8, align 8, !tbaa !9
  call void (ptr, i32, ptr, ptr, ptr, ...) @cvProcessError(ptr noundef %36, i32 noundef -5, ptr noundef @.str, ptr noundef @.str.6, ptr noundef @.str.7)
  store i32 -5, ptr %4, align 4
  store i32 1, ptr %15, align 4
  br label %79

37:                                               ; preds = %27
  %38 = load ptr, ptr %9, align 8, !tbaa !22
  %39 = getelementptr inbounds nuw %struct.CVSpilsMemRec, ptr %38, i32 0, i32 23
  %40 = load ptr, ptr %39, align 8, !tbaa !42
  store ptr %40, ptr %10, align 8, !tbaa !30
  %41 = load ptr, ptr %10, align 8, !tbaa !30
  %42 = getelementptr inbounds nuw %struct.CVBandPrecDataRec, ptr %41, i32 0, i32 0
  %43 = load i64, ptr %42, align 8, !tbaa !35
  store i64 %43, ptr %11, align 8, !tbaa !7
  %44 = load ptr, ptr %10, align 8, !tbaa !30
  %45 = getelementptr inbounds nuw %struct.CVBandPrecDataRec, ptr %44, i32 0, i32 2
  %46 = load i64, ptr %45, align 8, !tbaa !36
  store i64 %46, ptr %13, align 8, !tbaa !7
  %47 = load ptr, ptr %10, align 8, !tbaa !30
  %48 = getelementptr inbounds nuw %struct.CVBandPrecDataRec, ptr %47, i32 0, i32 1
  %49 = load i64, ptr %48, align 8, !tbaa !37
  store i64 %49, ptr %12, align 8, !tbaa !7
  %50 = load i64, ptr %11, align 8, !tbaa !7
  %51 = sub nsw i64 %50, 1
  %52 = load i64, ptr %13, align 8, !tbaa !7
  %53 = load i64, ptr %12, align 8, !tbaa !7
  %54 = add nsw i64 %52, %53
  %55 = icmp slt i64 %51, %54
  br i1 %55, label %56, label %59

56:                                               ; preds = %37
  %57 = load i64, ptr %11, align 8, !tbaa !7
  %58 = sub nsw i64 %57, 1
  br label %63

59:                                               ; preds = %37
  %60 = load i64, ptr %13, align 8, !tbaa !7
  %61 = load i64, ptr %12, align 8, !tbaa !7
  %62 = add nsw i64 %60, %61
  br label %63

63:                                               ; preds = %59, %56
  %64 = phi i64 [ %58, %56 ], [ %62, %59 ]
  store i64 %64, ptr %14, align 8, !tbaa !7
  %65 = load ptr, ptr %10, align 8, !tbaa !30
  %66 = getelementptr inbounds nuw %struct.CVBandPrecDataRec, ptr %65, i32 0, i32 0
  %67 = load i64, ptr %66, align 8, !tbaa !35
  %68 = load ptr, ptr %7, align 8, !tbaa !50
  store i64 %67, ptr %68, align 8, !tbaa !7
  %69 = load i64, ptr %11, align 8, !tbaa !7
  %70 = load i64, ptr %12, align 8, !tbaa !7
  %71 = mul nsw i64 2, %70
  %72 = load i64, ptr %14, align 8, !tbaa !7
  %73 = add nsw i64 %71, %72
  %74 = load i64, ptr %13, align 8, !tbaa !7
  %75 = add nsw i64 %73, %74
  %76 = add nsw i64 %75, 2
  %77 = mul nsw i64 %69, %76
  %78 = load ptr, ptr %6, align 8, !tbaa !50
  store i64 %77, ptr %78, align 8, !tbaa !7
  store i32 0, ptr %4, align 4
  store i32 1, ptr %15, align 4
  br label %79

79:                                               ; preds = %63, %35, %25, %18
  call void @llvm.lifetime.end.p0(i64 8, ptr %14) #5
  call void @llvm.lifetime.end.p0(i64 8, ptr %13) #5
  call void @llvm.lifetime.end.p0(i64 8, ptr %12) #5
  call void @llvm.lifetime.end.p0(i64 8, ptr %11) #5
  call void @llvm.lifetime.end.p0(i64 8, ptr %10) #5
  call void @llvm.lifetime.end.p0(i64 8, ptr %9) #5
  call void @llvm.lifetime.end.p0(i64 8, ptr %8) #5
  %80 = load i32, ptr %4, align 4
  ret i32 %80
}