; Function Attrs: nounwind uwtable
define range(i32 -5, 1) i32 @CVBandPrecGetWorkSpace(ptr noundef %0, ptr noundef writeonly captures(none) %1, ptr noundef writeonly captures(none) %2) local_unnamed_addr #0 {
  %4 = icmp eq ptr %0, null
  br i1 %4, label %5, label %6

5:                                                ; preds = %3
  tail call void (ptr, i32, ptr, ptr, ptr, ...) @cvProcessError(ptr noundef null, i32 noundef -1, ptr noundef nonnull @.str, ptr noundef nonnull @.str.6, ptr noundef nonnull @.str.2) #5
  br label %30

6:                                                ; preds = %3
  %7 = getelementptr inbounds nuw i8, ptr %0, i64 1696
  %8 = load ptr, ptr %7, align 8, !tbaa !3
  %9 = icmp eq ptr %8, null
  br i1 %9, label %10, label %11

10:                                               ; preds = %6
  tail call void (ptr, i32, ptr, ptr, ptr, ...) @cvProcessError(ptr noundef nonnull %0, i32 noundef -2, ptr noundef nonnull @.str, ptr noundef nonnull @.str.6, ptr noundef nonnull @.str.3) #5
  br label %30

11:                                               ; preds = %6
  %12 = getelementptr inbounds nuw i8, ptr %8, i64 176
  %13 = load ptr, ptr %12, align 8, !tbaa !34
  %14 = icmp eq ptr %13, null
  br i1 %14, label %15, label %16

15:                                               ; preds = %11
  tail call void (ptr, i32, ptr, ptr, ptr, ...) @cvProcessError(ptr noundef nonnull %0, i32 noundef -5, ptr noundef nonnull @.str, ptr noundef nonnull @.str.6, ptr noundef nonnull @.str.7) #5
  br label %30

16:                                               ; preds = %11
  %17 = load i64, ptr %13, align 8, !tbaa !27
  %18 = getelementptr inbounds nuw i8, ptr %13, i64 16
  %19 = load i64, ptr %18, align 8, !tbaa !28
  %20 = getelementptr inbounds nuw i8, ptr %13, i64 8
  %21 = load i64, ptr %20, align 8, !tbaa !29
  %22 = add nsw i64 %21, %19
  %.not = icmp sgt i64 %17, %22
  %23 = add nsw i64 %17, -1
  %24 = select i1 %.not, i64 %22, i64 %23
  store i64 %17, ptr %2, align 8, !tbaa !54
  %25 = shl nsw i64 %21, 1
  %26 = add i64 %19, 2
  %27 = add i64 %26, %25
  %28 = add i64 %27, %24
  %29 = mul nsw i64 %28, %17
  store i64 %29, ptr %1, align 8, !tbaa !54
  br label %30

30:                                               ; preds = %16, %15, %10, %5
  %.0 = phi i32 [ -1, %5 ], [ -2, %10 ], [ -5, %15 ], [ 0, %16 ]
  ret i32 %.0
}